; Function Attrs: nounwind uwtable
define dso_local void @replyToClientsBlockedOnShutdown() local_unnamed_addr #0 {
  %1 = alloca %struct.listIter, align 8
  %2 = load i32, ptr getelementptr inbounds nuw (i8, ptr @server, i64 7624), align 8, !tbaa !56
  %3 = icmp eq i32 %2, 0
  br i1 %3, label %20, label %4

4:                                                ; preds = %0
  call void @llvm.lifetime.start.p0(i64 16, ptr nonnull %1) #5
  %5 = load ptr, ptr getelementptr inbounds nuw (i8, ptr @server, i64 1432), align 8, !tbaa !85
  call void @listRewind(ptr noundef %5, ptr noundef nonnull %1) #5
  %6 = call ptr @listNext(ptr noundef nonnull %1) #5
  %.not6 = icmp eq ptr %6, null
  br i1 %.not6, label %._crit_edge, label %.lr.ph

.lr.ph:                                           ; preds = %4, %18
  %7 = phi ptr [ %19, %18 ], [ %6, %4 ]
  %8 = getelementptr inbounds nuw i8, ptr %7, i64 16
  %9 = load ptr, ptr %8, align 8, !tbaa !75
  %10 = getelementptr inbounds nuw i8, ptr %9, i64 8
  %11 = load i64, ptr %10, align 8, !tbaa !34
  %12 = and i64 %11, 16
  %.not5 = icmp eq i64 %12, 0
  br i1 %.not5, label %18, label %13

13:                                               ; preds = %.lr.ph
  %14 = getelementptr inbounds nuw i8, ptr %9, i64 480
  %15 = load i32, ptr %14, align 8, !tbaa !5
  %16 = icmp eq i32 %15, 8
  br i1 %16, label %17, label %18

17:                                               ; preds = %13
  call void @addReplyError(ptr noundef nonnull %9, ptr noundef nonnull @.str.6) #5
  call void @unblockClient(ptr noundef nonnull %9, i32 noundef 1)
  br label %18

18:                                               ; preds = %17, %13, %.lr.ph
  %19 = call ptr @listNext(ptr noundef nonnull %1) #5
  %.not = icmp eq ptr %19, null
  br i1 %.not, label %._crit_edge, label %.lr.ph, !llvm.loop !86

._crit_edge:                                      ; preds = %18, %4
  call void @llvm.lifetime.end.p0(i64 16, ptr nonnull %1) #5
  br label %20

20:                                               ; preds = %0, %._crit_edge
  ret void
}